; ModuleID = '4/1751.c'
source_filename = "4/1751.c"
target datalayout = "e-m:e-p270:32:32-p271:32:32-p272:64:64-i64:64-f80:128-n8:16:32:64-S128"
target triple = "x86_64-pc-linux-gnu"

@.str = private unnamed_addr constant [6 x i8] c"%d %d\00", align 1
@.str.1 = private unnamed_addr constant [3 x i8] c"%d\00", align 1
@.str.2 = private unnamed_addr constant [4 x i8] c"\0A%d\00", align 1

; Function Attrs: noinline nounwind uwtable
define dso_local i32 @main() #0 {
  %1 = alloca i32, align 4
  %2 = alloca [100 x [100 x i32]], align 16
  %3 = alloca i32, align 4
  %4 = alloca i32, align 4
  %5 = alloca i32, align 4
  %6 = alloca i32, align 4
  %7 = alloca i32, align 4
  %8 = alloca i32, align 4
  %9 = alloca i32, align 4
  store i32 0, i32* %1, align 4
  %10 = call i32 (i8*, ...) @__isoc99_scanf(i8* getelementptr inbounds ([6 x i8], [6 x i8]* @.str, i64 0, i64 0), i32* %3, i32* %4)
  store i32 0, i32* %5, align 4
  br label %11

11:                                               ; preds = %32, %0
  %12 = load i32, i32* %5, align 4
  %13 = load i32, i32* %3, align 4
  %14 = icmp slt i32 %12, %13
  br i1 %14, label %15, label %35

15:                                               ; preds = %11
  store i32 0, i32* %6, align 4
  br label %16

16:                                               ; preds = %28, %15
  %17 = load i32, i32* %6, align 4
  %18 = load i32, i32* %4, align 4
  %19 = icmp slt i32 %17, %18
  br i1 %19, label %20, label %31

20:                                               ; preds = %16
  %21 = load i32, i32* %5, align 4
  %22 = sext i32 %21 to i64
  %23 = getelementptr inbounds [100 x [100 x i32]], [100 x [100 x i32]]* %2, i64 0, i64 %22
  %24 = load i32, i32* %6, align 4
  %25 = sext i32 %24 to i64
  %26 = getelementptr inbounds [100 x i32], [100 x i32]* %23, i64 0, i64 %25
  %27 = call i32 (i8*, ...) @__isoc99_scanf(i8* getelementptr inbounds ([3 x i8], [3 x i8]* @.str.1, i64 0, i64 0), i32* %26)
  br label %28

28:                                               ; preds = %20
  %29 = load i32, i32* %6, align 4
  %30 = add nsw i32 %29, 1
  store i32 %30, i32* %6, align 4
  br label %16

31:                                               ; preds = %16
  br label %32

32:                                               ; preds = %31
  %33 = load i32, i32* %5, align 4
  %34 = add nsw i32 %33, 1
  store i32 %34, i32* %5, align 4
  br label %11

35:                                               ; preds = %11
  store i32 1, i32* %8, align 4
  %36 = load i32, i32* %3, align 4
  %37 = sub nsw i32 %36, 1
  store i32 %37, i32* %9, align 4
  %38 = load i32, i32* %4, align 4
  %39 = load i32, i32* %9, align 4
  %40 = add nsw i32 %39, 1
  %41 = icmp slt i32 %38, %40
  br i1 %41, label %42, label %45

42:                                               ; preds = %35
  %43 = load i32, i32* %4, align 4
  %44 = sub nsw i32 %43, 1
  store i32 %44, i32* %9, align 4
  br label %45

45:                                               ; preds = %42, %35
  store i32 0, i32* %7, align 4
  br label %46

46:                                               ; preds = %85, %45
  %47 = load i32, i32* %7, align 4
  %48 = load i32, i32* %9, align 4
  %49 = icmp sle i32 %47, %48
  br i1 %49, label %50, label %88

50:                                               ; preds = %46
  store i32 0, i32* %5, align 4
  br label %51

51:                                               ; preds = %81, %50
  %52 = load i32, i32* %5, align 4
  %53 = load i32, i32* %7, align 4
  %54 = icmp sle i32 %52, %53
  br i1 %54, label %55, label %84

55:                                               ; preds = %51
  %56 = load i32, i32* %8, align 4
  %57 = icmp eq i32 %56, 1
  br i1 %57, label %58, label %69

58:                                               ; preds = %55
  %59 = load i32, i32* %5, align 4
  %60 = sext i32 %59 to i64
  %61 = getelementptr inbounds [100 x [100 x i32]], [100 x [100 x i32]]* %2, i64 0, i64 %60
  %62 = load i32, i32* %7, align 4
  %63 = load i32, i32* %5, align 4
  %64 = sub nsw i32 %62, %63
  %65 = sext i32 %64 to i64
  %66 = getelementptr inbounds [100 x i32], [100 x i32]* %61, i64 0, i64 %65
  %67 = load i32, i32* %66, align 4
  %68 = call i32 (i8*, ...) @printf(i8* getelementptr inbounds ([3 x i8], [3 x i8]* @.str.1, i64 0, i64 0), i32 %67)
  store i32 0, i32* %8, align 4
  br label %80

69:                                               ; preds = %55
  %70 = load i32, i32* %5, align 4
  %71 = sext i32 %70 to i64
  %72 = getelementptr inbounds [100 x [100 x i32]], [100 x [100 x i32]]* %2, i64 0, i64 %71
  %73 = load i32, i32* %7, align 4
  %74 = load i32, i32* %5, align 4
  %75 = sub nsw i32 %73, %74
  %76 = sext i32 %75 to i64
  %77 = getelementptr inbounds [100 x i32], [100 x i32]* %72, i64 0, i64 %76
  %78 = load i32, i32* %77, align 4
  %79 = call i32 (i8*, ...) @printf(i8* getelementptr inbounds ([4 x i8], [4 x i8]* @.str.2, i64 0, i64 0), i32 %78)
  br label %80

80:                                               ; preds = %69, %58
  br label %81

81:                                               ; preds = %80
  %82 = load i32, i32* %5, align 4
  %83 = add nsw i32 %82, 1
  store i32 %83, i32* %5, align 4
  br label %51

84:                                               ; preds = %51
  br label %85

85:                                               ; preds = %84
  %86 = load i32, i32* %7, align 4
  %87 = add nsw i32 %86, 1
  store i32 %87, i32* %7, align 4
  br label %46

88:                                               ; preds = %46
  %89 = load i32, i32* %3, align 4
  %90 = load i32, i32* %4, align 4
  %91 = icmp sgt i32 %89, %90
  br i1 %91, label %92, label %131

92:                                               ; preds = %88
  store i32 1, i32* %7, align 4
  br label %93

93:                                               ; preds = %127, %92
  %94 = load i32, i32* %7, align 4
  %95 = load i32, i32* %3, align 4
  %96 = load i32, i32* %4, align 4
  %97 = sub nsw i32 %95, %96
  %98 = icmp sle i32 %94, %97
  br i1 %98, label %99, label %130

99:                                               ; preds = %93
  %100 = load i32, i32* %7, align 4
  store i32 %100, i32* %5, align 4
  %101 = load i32, i32* %4, align 4
  %102 = sub nsw i32 %101, 1
  store i32 %102, i32* %6, align 4
  br label %103

103:                                              ; preds = %121, %99
  %104 = load i32, i32* %6, align 4
  %105 = icmp sge i32 %104, 0
  br i1 %105, label %106, label %110

106:                                              ; preds = %103
  %107 = load i32, i32* %5, align 4
  %108 = load i32, i32* %3, align 4
  %109 = icmp slt i32 %107, %108
  br label %110

110:                                              ; preds = %106, %103
  %111 = phi i1 [ false, %103 ], [ %109, %106 ]
  br i1 %111, label %112, label %126

112:                                              ; preds = %110
  %113 = load i32, i32* %5, align 4
  %114 = sext i32 %113 to i64
  %115 = getelementptr inbounds [100 x [100 x i32]], [100 x [100 x i32]]* %2, i64 0, i64 %114
  %116 = load i32, i32* %6, align 4
  %117 = sext i32 %116 to i64
  %118 = getelementptr inbounds [100 x i32], [100 x i32]* %115, i64 0, i64 %117
  %119 = load i32, i32* %118, align 4
  %120 = call i32 (i8*, ...) @printf(i8* getelementptr inbounds ([4 x i8], [4 x i8]* @.str.2, i64 0, i64 0), i32 %119)
  br label %121

121:                                              ; preds = %112
  %122 = load i32, i32* %6, align 4
  %123 = add nsw i32 %122, -1
  store i32 %123, i32* %6, align 4
  %124 = load i32, i32* %5, align 4
  %125 = add nsw i32 %124, 1
  store i32 %125, i32* %5, align 4
  br label %103

126:                                              ; preds = %110
  br label %127

127:                                              ; preds = %126
  %128 = load i32, i32* %7, align 4
  %129 = add nsw i32 %128, 1
  store i32 %129, i32* %7, align 4
  br label %93

130:                                              ; preds = %93
  br label %131

131:                                              ; preds = %130, %88
  %132 = load i32, i32* %3, align 4
  %133 = load i32, i32* %4, align 4
  %134 = icmp slt i32 %132, %133
  br i1 %134, label %135, label %171

135:                                              ; preds = %131
  store i32 1, i32* %7, align 4
  br label %136

136:                                              ; preds = %167, %135
  %137 = load i32, i32* %7, align 4
  %138 = load i32, i32* %4, align 4
  %139 = load i32, i32* %3, align 4
  %140 = sub nsw i32 %138, %139
  %141 = icmp sle i32 %137, %140
  br i1 %141, label %142, label %170

142:                                              ; preds = %136
  %143 = load i32, i32* %3, align 4
  %144 = sub nsw i32 %143, 1
  %145 = load i32, i32* %7, align 4
  %146 = add nsw i32 %144, %145
  store i32 %146, i32* %6, align 4
  store i32 0, i32* %5, align 4
  br label %147

147:                                              ; preds = %161, %142
  %148 = load i32, i32* %5, align 4
  %149 = load i32, i32* %3, align 4
  %150 = sub nsw i32 %149, 1
  %151 = icmp sle i32 %148, %150
  br i1 %151, label %152, label %166

152:                                              ; preds = %147
  %153 = load i32, i32* %5, align 4
  %154 = sext i32 %153 to i64
  %155 = getelementptr inbounds [100 x [100 x i32]], [100 x [100 x i32]]* %2, i64 0, i64 %154
  %156 = load i32, i32* %6, align 4
  %157 = sext i32 %156 to i64
  %158 = getelementptr inbounds [100 x i32], [100 x i32]* %155, i64 0, i64 %157
  %159 = load i32, i32* %158, align 4
  %160 = call i32 (i8*, ...) @printf(i8* getelementptr inbounds ([4 x i8], [4 x i8]* @.str.2, i64 0, i64 0), i32 %159)
  br label %161

161:                                              ; preds = %152
  %162 = load i32, i32* %6, align 4
  %163 = add nsw i32 %162, -1
  store i32 %163, i32* %6, align 4
  %164 = load i32, i32* %5, align 4
  %165 = add nsw i32 %164, 1
  store i32 %165, i32* %5, align 4
  br label %147

166:                                              ; preds = %147
  br label %167

167:                                              ; preds = %166
  %168 = load i32, i32* %7, align 4
  %169 = add nsw i32 %168, 1
  store i32 %169, i32* %7, align 4
  br label %136

170:                                              ; preds = %136
  br label %171

171:                                              ; preds = %170, %131
  %172 = load i32, i32* %9, align 4
  %173 = add nsw i32 %172, 1
  store i32 %173, i32* %7, align 4
  br label %174

174:                                              ; preds = %203, %171
  %175 = load i32, i32* %7, align 4
  %176 = icmp sge i32 %175, 1
  br i1 %176, label %177, label %206

177:                                              ; preds = %174
  %178 = load i32, i32* %3, align 4
  %179 = load i32, i32* %7, align 4
  %180 = sub nsw i32 %178, %179
  %181 = add nsw i32 %180, 1
  store i32 %181, i32* %5, align 4
  %182 = load i32, i32* %4, align 4
  %183 = sub nsw i32 %182, 1
  store i32 %183, i32* %6, align 4
  br label %184

184:                                              ; preds = %197, %177
  %185 = load i32, i32* %5, align 4
  %186 = load i32, i32* %3, align 4
  %187 = icmp slt i32 %185, %186
  br i1 %187, label %188, label %202

188:                                              ; preds = %184
  %189 = load i32, i32* %5, align 4
  %190 = sext i32 %189 to i64
  %191 = getelementptr inbounds [100 x [100 x i32]], [100 x [100 x i32]]* %2, i64 0, i64 %190
  %192 = load i32, i32* %6, align 4
  %193 = sext i32 %192 to i64
  %194 = getelementptr inbounds [100 x i32], [100 x i32]* %191, i64 0, i64 %193
  %195 = load i32, i32* %194, align 4
  %196 = call i32 (i8*, ...) @printf(i8* getelementptr inbounds ([4 x i8], [4 x i8]* @.str.2, i64 0, i64 0), i32 %195)
  br label %197

197:                                              ; preds = %188
  %198 = load i32, i32* %5, align 4
  %199 = add nsw i32 %198, 1
  store i32 %199, i32* %5, align 4
  %200 = load i32, i32* %6, align 4
  %201 = add nsw i32 %200, -1
  store i32 %201, i32* %6, align 4
  br label %184

202:                                              ; preds = %184
  br label %203

203:                                              ; preds = %202
  %204 = load i32, i32* %7, align 4
  %205 = add nsw i32 %204, -1
  store i32 %205, i32* %7, align 4
  br label %174

206:                                              ; preds = %174
  ret i32 0
}

declare dso_local i32 @__isoc99_scanf(i8*, ...) #1

declare dso_local i32 @printf(i8*, ...) #1


!llvm.module.flags = !{!0}
!llvm.ident = !{!1}

!0 = !{i32 1, !"wchar_size", i32 4}
!1 = !{!"clang version 10.0.0-4ubuntu1 "}
